; Function Attrs: nounwind uwtable
define void @Sbd_ManDeriveMapping_rec(ptr noundef readonly captures(none) %0, ptr noundef readonly captures(none) %1, i32 noundef %2) local_unnamed_addr #2 {
  %.not = icmp eq i32 %2, 0
  br i1 %.not, label %100, label %4

4:                                                ; preds = %3
  %5 = getelementptr i8, ptr %1, i64 176
  %.val34 = load i32, ptr %5, align 8, !tbaa !119
  %6 = getelementptr i8, ptr %1, i64 616
  %.val35 = load ptr, ptr %6, align 8, !tbaa !120
  %7 = sext i32 %2 to i64
  %8 = getelementptr inbounds i32, ptr %.val35, i64 %7
  %9 = load i32, ptr %8, align 4, !tbaa !50
  %.not48 = icmp eq i32 %9, %.val34
  br i1 %.not48, label %100, label %10

10:                                               ; preds = %4
  store i32 %.val34, ptr %8, align 4, !tbaa !50
  %11 = getelementptr i8, ptr %1, i64 32
  %.val32 = load ptr, ptr %11, align 8, !tbaa !55
  %12 = getelementptr inbounds %struct.Gia_Obj_t_, ptr %.val32, i64 %7
  %.val38 = load i64, ptr %12, align 4
  %13 = and i64 %.val38, 2684354559
  %narrow.i.not = icmp eq i64 %13, 2684354559
  br i1 %narrow.i.not, label %100, label %14

14:                                               ; preds = %10
  %.val39 = load ptr, ptr %0, align 8, !tbaa !74
  %15 = getelementptr i8, ptr %0, i64 40
  %.val40 = load ptr, ptr %15, align 8, !tbaa !275
  %.val39.val = load i32, ptr %.val39, align 4, !tbaa !3
  %16 = getelementptr i8, ptr %.val40, i64 8
  %.val40.val = load ptr, ptr %16, align 8, !tbaa !49
  %17 = add nsw i32 %.val39.val, 1
  %18 = mul nsw i32 %17, %2
  %19 = sext i32 %18 to i64
  %20 = getelementptr inbounds i32, ptr %.val40.val, i64 %19
  %21 = load i32, ptr %20, align 4, !tbaa !50
  %.not3049 = icmp slt i32 %21, 1
  br i1 %.not3049, label %._crit_edge, label %.lr.ph

.lr.ph:                                           ; preds = %14, %.lr.ph
  %indvars.iv = phi i64 [ %indvars.iv.next, %.lr.ph ], [ 1, %14 ]
  %22 = getelementptr inbounds nuw i32, ptr %20, i64 %indvars.iv
  %23 = load i32, ptr %22, align 4, !tbaa !50
  tail call void @Sbd_ManDeriveMapping_rec(ptr noundef nonnull %0, ptr noundef %1, i32 noundef %23)
  %indvars.iv.next = add nuw nsw i64 %indvars.iv, 1
  %24 = load i32, ptr %20, align 4, !tbaa !50
  %25 = sext i32 %24 to i64
  %.not30.not = icmp slt i64 %indvars.iv, %25
  br i1 %.not30.not, label %.lr.ph, label %._crit_edge, !llvm.loop !276

._crit_edge:                                      ; preds = %.lr.ph, %14
  %26 = getelementptr inbounds nuw i8, ptr %1, i64 264
  %27 = load ptr, ptr %26, align 8, !tbaa !277
  %28 = getelementptr i8, ptr %27, i64 4
  %.val = load i32, ptr %28, align 4, !tbaa !48
  %29 = getelementptr i8, ptr %27, i64 8
  %.val33 = load ptr, ptr %29, align 8, !tbaa !49
  %30 = getelementptr inbounds i32, ptr %.val33, i64 %7
  store i32 %.val, ptr %30, align 4, !tbaa !50
  %31 = load i32, ptr %20, align 4, !tbaa !50
  %.not3151 = icmp slt i32 %31, 0
  br i1 %.not3151, label %._crit_edge55, label %.lr.ph54

.lr.ph54:                                         ; preds = %._crit_edge, %Vec_IntPush.exit
  %indvars.iv57 = phi i64 [ %indvars.iv.next58, %Vec_IntPush.exit ], [ 0, %._crit_edge ]
  %32 = load ptr, ptr %26, align 8, !tbaa !277
  %33 = getelementptr inbounds nuw i32, ptr %20, i64 %indvars.iv57
  %34 = load i32, ptr %33, align 4, !tbaa !50
  %35 = getelementptr inbounds nuw i8, ptr %32, i64 4
  %36 = load i32, ptr %35, align 4, !tbaa !48
  %37 = load i32, ptr %32, align 8, !tbaa !51
  %38 = icmp eq i32 %36, %37
  br i1 %38, label %39, label %.Vec_IntGrow.exit10_crit_edge.i

.Vec_IntGrow.exit10_crit_edge.i:                  ; preds = %.lr.ph54
  %.phi.trans.insert.i = getelementptr inbounds nuw i8, ptr %32, i64 8
  %.pre.i = load ptr, ptr %.phi.trans.insert.i, align 8, !tbaa !49
  br label %Vec_IntPush.exit

39:                                               ; preds = %.lr.ph54
  %40 = icmp slt i32 %36, 16
  br i1 %40, label %41, label %49

41:                                               ; preds = %39
  %42 = getelementptr inbounds nuw i8, ptr %32, i64 8
  %43 = load ptr, ptr %42, align 8, !tbaa !49
  %.not9.i.i = icmp eq ptr %43, null
  br i1 %.not9.i.i, label %46, label %44

44:                                               ; preds = %41
  %45 = tail call dereferenceable_or_null(64) ptr @realloc(ptr noundef nonnull %43, i64 noundef 64) #33
  br label %Vec_IntGrow.exit.i

46:                                               ; preds = %41
  %47 = tail call noalias dereferenceable_or_null(64) ptr @malloc(i64 noundef 64) #30
  br label %Vec_IntGrow.exit.i

Vec_IntGrow.exit.i:                               ; preds = %46, %44
  %48 = phi ptr [ %45, %44 ], [ %47, %46 ]
  store ptr %48, ptr %42, align 8, !tbaa !49
  store i32 16, ptr %32, align 8, !tbaa !51
  br label %Vec_IntPush.exit

49:                                               ; preds = %39
  %50 = shl nuw nsw i32 %36, 1
  %51 = getelementptr inbounds nuw i8, ptr %32, i64 8
  %52 = load ptr, ptr %51, align 8, !tbaa !49
  %.not9.i9.i = icmp eq ptr %52, null
  %53 = zext nneg i32 %50 to i64
  %54 = shl nuw nsw i64 %53, 2
  br i1 %.not9.i9.i, label %57, label %55

55:                                               ; preds = %49
  %56 = tail call ptr @realloc(ptr noundef nonnull %52, i64 noundef %54) #33
  br label %59

57:                                               ; preds = %49
  %58 = tail call noalias ptr @malloc(i64 noundef %54) #30
  br label %59

59:                                               ; preds = %57, %55
  %60 = phi ptr [ %56, %55 ], [ %58, %57 ]
  store ptr %60, ptr %51, align 8, !tbaa !49
  store i32 %50, ptr %32, align 8, !tbaa !51
  br label %Vec_IntPush.exit

Vec_IntPush.exit:                                 ; preds = %.Vec_IntGrow.exit10_crit_edge.i, %Vec_IntGrow.exit.i, %59
  %61 = phi ptr [ %.pre.i, %.Vec_IntGrow.exit10_crit_edge.i ], [ %60, %59 ], [ %48, %Vec_IntGrow.exit.i ]
  %62 = load i32, ptr %35, align 4, !tbaa !48
  %63 = add nsw i32 %62, 1
  store i32 %63, ptr %35, align 4, !tbaa !48
  %64 = sext i32 %62 to i64
  %65 = getelementptr inbounds i32, ptr %61, i64 %64
  store i32 %34, ptr %65, align 4, !tbaa !50
  %indvars.iv.next58 = add nuw nsw i64 %indvars.iv57, 1
  %66 = load i32, ptr %20, align 4, !tbaa !50
  %67 = sext i32 %66 to i64
  %.not31.not = icmp slt i64 %indvars.iv57, %67
  br i1 %.not31.not, label %.lr.ph54, label %._crit_edge55.loopexit, !llvm.loop !278

._crit_edge55.loopexit:                           ; preds = %Vec_IntPush.exit
  %.pre = load ptr, ptr %26, align 8, !tbaa !277
  %.phi.trans.insert = getelementptr inbounds nuw i8, ptr %.pre, i64 4
  %.pre60 = load i32, ptr %.phi.trans.insert, align 4, !tbaa !48
  br label %._crit_edge55

._crit_edge55:                                    ; preds = %._crit_edge55.loopexit, %._crit_edge
  %68 = phi i32 [ %.pre60, %._crit_edge55.loopexit ], [ %.val, %._crit_edge ]
  %69 = phi ptr [ %.pre, %._crit_edge55.loopexit ], [ %27, %._crit_edge ]
  %70 = getelementptr inbounds nuw i8, ptr %69, i64 4
  %71 = load i32, ptr %69, align 8, !tbaa !51
  %72 = icmp eq i32 %68, %71
  br i1 %72, label %73, label %.Vec_IntGrow.exit10_crit_edge.i41

.Vec_IntGrow.exit10_crit_edge.i41:                ; preds = %._crit_edge55
  %.phi.trans.insert.i42 = getelementptr inbounds nuw i8, ptr %69, i64 8
  %.pre.i43 = load ptr, ptr %.phi.trans.insert.i42, align 8, !tbaa !49
  br label %Vec_IntPush.exit47

73:                                               ; preds = %._crit_edge55
  %74 = icmp slt i32 %68, 16
  br i1 %74, label %75, label %83

75:                                               ; preds = %73
  %76 = getelementptr inbounds nuw i8, ptr %69, i64 8
  %77 = load ptr, ptr %76, align 8, !tbaa !49
  %.not9.i.i45 = icmp eq ptr %77, null
  br i1 %.not9.i.i45, label %80, label %78

78:                                               ; preds = %75
  %79 = tail call dereferenceable_or_null(64) ptr @realloc(ptr noundef nonnull %77, i64 noundef 64) #33
  br label %Vec_IntGrow.exit.i46

80:                                               ; preds = %75
  %81 = tail call noalias dereferenceable_or_null(64) ptr @malloc(i64 noundef 64) #30
  br label %Vec_IntGrow.exit.i46

Vec_IntGrow.exit.i46:                             ; preds = %80, %78
  %82 = phi ptr [ %79, %78 ], [ %81, %80 ]
  store ptr %82, ptr %76, align 8, !tbaa !49
  store i32 16, ptr %69, align 8, !tbaa !51
  br label %Vec_IntPush.exit47

83:                                               ; preds = %73
  %84 = shl nuw nsw i32 %68, 1
  %85 = getelementptr inbounds nuw i8, ptr %69, i64 8
  %86 = load ptr, ptr %85, align 8, !tbaa !49
  %.not9.i9.i44 = icmp eq ptr %86, null
  %87 = zext nneg i32 %84 to i64
  %88 = shl nuw nsw i64 %87, 2
  br i1 %.not9.i9.i44, label %91, label %89

89:                                               ; preds = %83
  %90 = tail call ptr @realloc(ptr noundef nonnull %86, i64 noundef %88) #33
  br label %93

91:                                               ; preds = %83
  %92 = tail call noalias ptr @malloc(i64 noundef %88) #30
  br label %93

93:                                               ; preds = %91, %89
  %94 = phi ptr [ %90, %89 ], [ %92, %91 ]
  store ptr %94, ptr %85, align 8, !tbaa !49
  store i32 %84, ptr %69, align 8, !tbaa !51
  br label %Vec_IntPush.exit47

Vec_IntPush.exit47:                               ; preds = %.Vec_IntGrow.exit10_crit_edge.i41, %Vec_IntGrow.exit.i46, %93
  %95 = phi ptr [ %.pre.i43, %.Vec_IntGrow.exit10_crit_edge.i41 ], [ %94, %93 ], [ %82, %Vec_IntGrow.exit.i46 ]
  %96 = load i32, ptr %70, align 4, !tbaa !48
  %97 = add nsw i32 %96, 1
  store i32 %97, ptr %70, align 4, !tbaa !48
  %98 = sext i32 %96 to i64
  %99 = getelementptr inbounds i32, ptr %95, i64 %98
  store i32 %2, ptr %99, align 4, !tbaa !50
  br label %100

100:                                              ; preds = %10, %3, %4, %Vec_IntPush.exit47
  ret void
}